target datalayout = "e-m:e-p270:32:32-p271:32:32-p272:64:64-i64:64-i128:128-f80:128-n8:16:32:64-S128"
target triple = "x86_64-pc-linux-gnu"

@Extra_TruthVarsAntiSymm.uTemp0 = internal global [16 x i32] zeroinitializer, align 16
@Extra_TruthVarsAntiSymm.uTemp1 = internal global [16 x i32] zeroinitializer, align 16

; Function Attrs: inlinehint nounwind uwtable
define internal i32 @Extra_TruthWordNum(i32 noundef %0) #2 {
  %2 = alloca i32, align 4
  store i32 %0, ptr %2, align 4, !tbaa !3
  %3 = load i32, ptr %2, align 4, !tbaa !3
  %4 = icmp sle i32 %3, 5
  br i1 %4, label %5, label %6

5:                                                ; preds = %1
  br label %10

6:                                                ; preds = %1
  %7 = load i32, ptr %2, align 4, !tbaa !3
  %8 = sub nsw i32 %7, 5
  %9 = shl i32 1, %8
  br label %10

10:                                               ; preds = %6, %5
  %11 = phi i32 [ 1, %5 ], [ %9, %6 ]
  ret i32 %11
}

; Function Attrs: inlinehint nounwind uwtable
define internal i32 @Extra_TruthIsEqual(ptr noundef %0, ptr noundef %1, i32 noundef %2) #2 {
  %4 = alloca i32, align 4
  %5 = alloca ptr, align 8
  %6 = alloca ptr, align 8
  %7 = alloca i32, align 4
  %8 = alloca i32, align 4
  %9 = alloca i32, align 4
  store ptr %0, ptr %5, align 8, !tbaa !10
  store ptr %1, ptr %6, align 8, !tbaa !10
  store i32 %2, ptr %7, align 4, !tbaa !3
  call void @llvm.lifetime.start.p0(i64 4, ptr %8) #5
  %10 = load i32, ptr %7, align 4, !tbaa !3
  %11 = call i32 @Extra_TruthWordNum(i32 noundef %10)
  %12 = sub nsw i32 %11, 1
  store i32 %12, ptr %8, align 4, !tbaa !3
  br label %13

13:                                               ; preds = %30, %3
  %14 = load i32, ptr %8, align 4, !tbaa !3
  %15 = icmp sge i32 %14, 0
  br i1 %15, label %16, label %33

16:                                               ; preds = %13
  %17 = load ptr, ptr %5, align 8, !tbaa !10
  %18 = load i32, ptr %8, align 4, !tbaa !3
  %19 = sext i32 %18 to i64
  %20 = getelementptr inbounds i32, ptr %17, i64 %19
  %21 = load i32, ptr %20, align 4, !tbaa !3
  %22 = load ptr, ptr %6, align 8, !tbaa !10
  %23 = load i32, ptr %8, align 4, !tbaa !3
  %24 = sext i32 %23 to i64
  %25 = getelementptr inbounds i32, ptr %22, i64 %24
  %26 = load i32, ptr %25, align 4, !tbaa !3
  %27 = icmp ne i32 %21, %26
  br i1 %27, label %28, label %29

28:                                               ; preds = %16
  store i32 0, ptr %4, align 4
  store i32 1, ptr %9, align 4
  br label %34

29:                                               ; preds = %16
  br label %30

30:                                               ; preds = %29
  %31 = load i32, ptr %8, align 4, !tbaa !3
  %32 = add nsw i32 %31, -1
  store i32 %32, ptr %8, align 4, !tbaa !3
  br label %13, !llvm.loop !82

33:                                               ; preds = %13
  store i32 1, ptr %4, align 4
  store i32 1, ptr %9, align 4
  br label %34

34:                                               ; preds = %33, %28
  call void @llvm.lifetime.end.p0(i64 4, ptr %8) #5
  %35 = load i32, ptr %4, align 4
  ret i32 %35
}

; Function Attrs: inlinehint nounwind uwtable
define internal void @Extra_TruthCopy(ptr noundef %0, ptr noundef %1, i32 noundef %2) #2 {
  %4 = alloca ptr, align 8
  %5 = alloca ptr, align 8
  %6 = alloca i32, align 4
  %7 = alloca i32, align 4
  store ptr %0, ptr %4, align 8, !tbaa !10
  store ptr %1, ptr %5, align 8, !tbaa !10
  store i32 %2, ptr %6, align 4, !tbaa !3
  call void @llvm.lifetime.start.p0(i64 4, ptr %7) #5
  %8 = load i32, ptr %6, align 4, !tbaa !3
  %9 = call i32 @Extra_TruthWordNum(i32 noundef %8)
  %10 = sub nsw i32 %9, 1
  store i32 %10, ptr %7, align 4, !tbaa !3
  br label %11

11:                                               ; preds = %24, %3
  %12 = load i32, ptr %7, align 4, !tbaa !3
  %13 = icmp sge i32 %12, 0
  br i1 %13, label %14, label %27

14:                                               ; preds = %11
  %15 = load ptr, ptr %5, align 8, !tbaa !10
  %16 = load i32, ptr %7, align 4, !tbaa !3
  %17 = sext i32 %16 to i64
  %18 = getelementptr inbounds i32, ptr %15, i64 %17
  %19 = load i32, ptr %18, align 4, !tbaa !3
  %20 = load ptr, ptr %4, align 8, !tbaa !10
  %21 = load i32, ptr %7, align 4, !tbaa !3
  %22 = sext i32 %21 to i64
  %23 = getelementptr inbounds i32, ptr %20, i64 %22
  store i32 %19, ptr %23, align 4, !tbaa !3
  br label %24

24:                                               ; preds = %14
  %25 = load i32, ptr %7, align 4, !tbaa !3
  %26 = add nsw i32 %25, -1
  store i32 %26, ptr %7, align 4, !tbaa !3
  br label %11, !llvm.loop !35

27:                                               ; preds = %11
  call void @llvm.lifetime.end.p0(i64 4, ptr %7) #5
  ret void
}

; Function Attrs: nounwind uwtable
define i32 @Extra_TruthVarsAntiSymm(ptr noundef %0, i32 noundef %1, i32 noundef %2, i32 noundef %3) #0 {
  %5 = alloca ptr, align 8
  %6 = alloca i32, align 4
  %7 = alloca i32, align 4
  %8 = alloca i32, align 4
  store ptr %0, ptr %5, align 8, !tbaa !10
  store i32 %1, ptr %6, align 4, !tbaa !3
  store i32 %2, ptr %7, align 4, !tbaa !3
  store i32 %3, ptr %8, align 4, !tbaa !3
  %9 = load ptr, ptr %5, align 8, !tbaa !10
  %10 = load i32, ptr %6, align 4, !tbaa !3
  call void @Extra_TruthCopy(ptr noundef @Extra_TruthVarsAntiSymm.uTemp0, ptr noundef %9, i32 noundef %10)
  %11 = load i32, ptr %6, align 4, !tbaa !3
  %12 = load i32, ptr %7, align 4, !tbaa !3
  call void @Extra_TruthCofactor0(ptr noundef @Extra_TruthVarsAntiSymm.uTemp0, i32 noundef %11, i32 noundef %12)
  %13 = load i32, ptr %6, align 4, !tbaa !3
  %14 = load i32, ptr %8, align 4, !tbaa !3
  call void @Extra_TruthCofactor0(ptr noundef @Extra_TruthVarsAntiSymm.uTemp0, i32 noundef %13, i32 noundef %14)
  %15 = load ptr, ptr %5, align 8, !tbaa !10
  %16 = load i32, ptr %6, align 4, !tbaa !3
  call void @Extra_TruthCopy(ptr noundef @Extra_TruthVarsAntiSymm.uTemp1, ptr noundef %15, i32 noundef %16)
  %17 = load i32, ptr %6, align 4, !tbaa !3
  %18 = load i32, ptr %7, align 4, !tbaa !3
  call void @Extra_TruthCofactor1(ptr noundef @Extra_TruthVarsAntiSymm.uTemp1, i32 noundef %17, i32 noundef %18)
  %19 = load i32, ptr %6, align 4, !tbaa !3
  %20 = load i32, ptr %8, align 4, !tbaa !3
  call void @Extra_TruthCofactor1(ptr noundef @Extra_TruthVarsAntiSymm.uTemp1, i32 noundef %19, i32 noundef %20)
  %21 = load i32, ptr %6, align 4, !tbaa !3
  %22 = call i32 @Extra_TruthIsEqual(ptr noundef @Extra_TruthVarsAntiSymm.uTemp0, ptr noundef @Extra_TruthVarsAntiSymm.uTemp1, i32 noundef %21)
  ret i32 %22
}