; Function Attrs: nofree norecurse nosync nounwind memory(readwrite, argmem: read, inaccessiblemem: none) uwtable
define range(i32 0, 2) i32 @Extra_TruthVarsAntiSymm(ptr noundef readonly captures(none) %0, i32 noundef %1, i32 noundef %2, i32 noundef %3) local_unnamed_addr #5 {
  %5 = icmp slt i32 %1, 6
  %6 = add nsw i32 %1, -5
  %7 = shl nuw i32 1, %6
  %spec.select.i = select i1 %5, i32 1, i32 %7
  %8 = icmp sgt i32 %spec.select.i, 0
  br i1 %8, label %select.unfold.preheader.i, label %Extra_TruthCopy.exit17.critedge

select.unfold.preheader.i:                        ; preds = %4
  %9 = zext nneg i32 %spec.select.i to i64
  br label %select.unfold.i

select.unfold.i:                                  ; preds = %select.unfold.i, %select.unfold.preheader.i
  %indvars.iv.i = phi i64 [ %9, %select.unfold.preheader.i ], [ %indvars.iv.next.i, %select.unfold.i ]
  %indvars.iv.next.i = add nsw i64 %indvars.iv.i, -1
  %10 = getelementptr inbounds nuw i32, ptr %0, i64 %indvars.iv.next.i
  %11 = load i32, ptr %10, align 4, !tbaa !3
  %12 = getelementptr inbounds nuw i32, ptr @Extra_TruthVarsAntiSymm.uTemp0, i64 %indvars.iv.next.i
  store i32 %11, ptr %12, align 4, !tbaa !3
  %13 = icmp samesign ugt i64 %indvars.iv.i, 1
  br i1 %13, label %select.unfold.i, label %Extra_TruthCopy.exit, !llvm.loop !33

Extra_TruthCopy.exit:                             ; preds = %select.unfold.i
  tail call void @Extra_TruthCofactor0(ptr noundef nonnull @Extra_TruthVarsAntiSymm.uTemp0, i32 noundef %1, i32 noundef %2)
  tail call void @Extra_TruthCofactor0(ptr noundef nonnull @Extra_TruthVarsAntiSymm.uTemp0, i32 noundef %1, i32 noundef %3)
  br label %select.unfold.i14

select.unfold.i14:                                ; preds = %select.unfold.i14, %Extra_TruthCopy.exit
  %indvars.iv.i15 = phi i64 [ %9, %Extra_TruthCopy.exit ], [ %indvars.iv.next.i16, %select.unfold.i14 ]
  %indvars.iv.next.i16 = add nsw i64 %indvars.iv.i15, -1
  %14 = getelementptr inbounds nuw i32, ptr %0, i64 %indvars.iv.next.i16
  %15 = load i32, ptr %14, align 4, !tbaa !3
  %16 = getelementptr inbounds nuw i32, ptr @Extra_TruthVarsAntiSymm.uTemp1, i64 %indvars.iv.next.i16
  store i32 %15, ptr %16, align 4, !tbaa !3
  %17 = icmp samesign ugt i64 %indvars.iv.i15, 1
  br i1 %17, label %select.unfold.i14, label %Extra_TruthCopy.exit17, !llvm.loop !33

Extra_TruthCopy.exit17.critedge:                  ; preds = %4
  tail call void @Extra_TruthCofactor0(ptr noundef nonnull @Extra_TruthVarsAntiSymm.uTemp0, i32 noundef %1, i32 noundef %2)
  tail call void @Extra_TruthCofactor0(ptr noundef nonnull @Extra_TruthVarsAntiSymm.uTemp0, i32 noundef %1, i32 noundef %3)
  br label %Extra_TruthCopy.exit17

Extra_TruthCopy.exit17:                           ; preds = %select.unfold.i14, %Extra_TruthCopy.exit17.critedge
  %.pre-phi = phi i64 [ 2147483648, %Extra_TruthCopy.exit17.critedge ], [ %9, %select.unfold.i14 ]
  tail call void @Extra_TruthCofactor1(ptr noundef nonnull @Extra_TruthVarsAntiSymm.uTemp1, i32 noundef %1, i32 noundef %2)
  tail call void @Extra_TruthCofactor1(ptr noundef nonnull @Extra_TruthVarsAntiSymm.uTemp1, i32 noundef %1, i32 noundef %3)
  br label %select.unfold.i19

select.unfold.i19:                                ; preds = %20, %Extra_TruthCopy.exit17
  %indvars.iv.i20 = phi i64 [ %.pre-phi, %Extra_TruthCopy.exit17 ], [ %21, %20 ]
  %18 = trunc nuw i64 %indvars.iv.i20 to i32
  %19 = icmp sgt i32 %18, 0
  br i1 %19, label %20, label %Extra_TruthIsEqual.exit

20:                                               ; preds = %select.unfold.i19
  %21 = add nsw i64 %indvars.iv.i20, -1
  %22 = getelementptr inbounds nuw i32, ptr @Extra_TruthVarsAntiSymm.uTemp0, i64 %21
  %23 = load i32, ptr %22, align 4, !tbaa !3
  %24 = getelementptr inbounds nuw i32, ptr @Extra_TruthVarsAntiSymm.uTemp1, i64 %21
  %25 = load i32, ptr %24, align 4, !tbaa !3
  %.not.i = icmp eq i32 %23, %25
  br i1 %.not.i, label %select.unfold.i19, label %Extra_TruthIsEqual.exit, !llvm.loop !80

Extra_TruthIsEqual.exit:                          ; preds = %select.unfold.i19, %20
  %.07.i = phi i32 [ 0, %20 ], [ 1, %select.unfold.i19 ]
  ret i32 %.07.i
}